target datalayout = "e-m:e-p270:32:32-p271:32:32-p272:64:64-i64:64-i128:128-f80:128-n8:16:32:64-S128"
target triple = "x86_64-pc-linux-gnu"

%struct.nameData = type { [64 x i8] }
%struct.HeapTupleData = type { i32, %struct.ItemPointerData, i32, ptr }
%struct.ItemPointerData = type { %struct.BlockIdData, i16 }
%struct.BlockIdData = type { i16, i16 }
%struct.HeapTupleHeaderData = type { %union.anon, %struct.ItemPointerData, i16, i16, i8, [0 x i8] }
%union.anon = type { %struct.HeapTupleFields }
%struct.HeapTupleFields = type { i32, i32, %union.anon.0 }
%union.anon.0 = type { i32 }
%struct.StringInfoData = type { ptr, i32, i32, i32 }
%struct.FormData_pg_operator = type { i32, %struct.nameData, i32, i32, i8, i8, i8, i32, i32, i32, i32, i32, i32, i32, i32 }

@.str.5 = private unnamed_addr constant [3 x i8] c"%u\00", align 1
@.str.7 = private unnamed_addr constant [4 x i8] c"%s(\00", align 1
@.str.19 = private unnamed_addr constant [4 x i8] c"%s.\00", align 1
@.str.20 = private unnamed_addr constant [4 x i8] c"%s,\00", align 1
@.str.21 = private unnamed_addr constant [6 x i8] c"NONE,\00", align 1
@.str.22 = private unnamed_addr constant [4 x i8] c"%s)\00", align 1
@.str.23 = private unnamed_addr constant [6 x i8] c"NONE)\00", align 1

; Function Attrs: inlinehint nounwind uwtable
define internal ptr @GETSTRUCT(ptr noundef %0) #2 {
  %2 = alloca ptr, align 8
  store ptr %0, ptr %2, align 8
  %3 = load ptr, ptr %2, align 8
  %4 = getelementptr inbounds nuw %struct.HeapTupleData, ptr %3, i32 0, i32 3
  %5 = load ptr, ptr %4, align 8
  %6 = load ptr, ptr %2, align 8
  %7 = getelementptr inbounds nuw %struct.HeapTupleData, ptr %6, i32 0, i32 3
  %8 = load ptr, ptr %7, align 8
  %9 = getelementptr inbounds nuw %struct.HeapTupleHeaderData, ptr %8, i32 0, i32 4
  %10 = load i8, ptr %9, align 2
  %11 = zext i8 %10 to i32
  %12 = sext i32 %11 to i64
  %13 = getelementptr inbounds i8, ptr %5, i64 %12
  ret ptr %13
}

; Function Attrs: inlinehint nounwind uwtable
define internal i64 @ObjectIdGetDatum(i32 noundef %0) #2 {
  %2 = alloca i32, align 4
  store i32 %0, ptr %2, align 4
  %3 = load i32, ptr %2, align 4
  %4 = zext i32 %3 to i64
  ret i64 %4
}

; Function Attrs: nounwind uwtable
define dso_local ptr @format_operator_extended(i32 noundef %0, i16 noundef zeroext %1) #0 {
  %3 = alloca i32, align 4
  %4 = alloca i16, align 2
  %5 = alloca ptr, align 8
  %6 = alloca ptr, align 8
  %7 = alloca ptr, align 8
  %8 = alloca ptr, align 8
  %9 = alloca ptr, align 8
  %10 = alloca %struct.StringInfoData, align 8
  store i32 %0, ptr %3, align 4
  store i16 %1, ptr %4, align 2
  call void @llvm.lifetime.start.p0(i64 8, ptr %5) #8
  call void @llvm.lifetime.start.p0(i64 8, ptr %6) #8
  %11 = load i32, ptr %3, align 4
  %12 = call i64 @ObjectIdGetDatum(i32 noundef %11)
  %13 = call ptr @SearchSysCache1(i32 noundef 40, i64 noundef %12)
  store ptr %13, ptr %6, align 8
  %14 = load ptr, ptr %6, align 8
  %15 = icmp ne ptr %14, null
  br i1 %15, label %16, label %88

16:                                               ; preds = %2
  call void @llvm.lifetime.start.p0(i64 8, ptr %7) #8
  %17 = load ptr, ptr %6, align 8
  %18 = call ptr @GETSTRUCT(ptr noundef %17)
  store ptr %18, ptr %7, align 8
  call void @llvm.lifetime.start.p0(i64 8, ptr %8) #8
  %19 = load ptr, ptr %7, align 8
  %20 = getelementptr inbounds nuw %struct.FormData_pg_operator, ptr %19, i32 0, i32 1
  %21 = getelementptr inbounds nuw %struct.nameData, ptr %20, i32 0, i32 0
  %22 = getelementptr inbounds [64 x i8], ptr %21, i64 0, i64 0
  store ptr %22, ptr %8, align 8
  call void @llvm.lifetime.start.p0(i64 8, ptr %9) #8
  call void @llvm.lifetime.start.p0(i64 24, ptr %10) #8
  call void @initStringInfo(ptr noundef %10)
  %23 = load i16, ptr %4, align 2
  %24 = zext i16 %23 to i32
  %25 = and i32 %24, 2
  %26 = icmp ne i32 %25, 0
  br i1 %26, label %30, label %27

27:                                               ; preds = %16
  %28 = load i32, ptr %3, align 4
  %29 = call zeroext i1 @OperatorIsVisible(i32 noundef %28)
  br i1 %29, label %37, label %30

30:                                               ; preds = %27, %16
  %31 = load ptr, ptr %7, align 8
  %32 = getelementptr inbounds nuw %struct.FormData_pg_operator, ptr %31, i32 0, i32 2
  %33 = load i32, ptr %32, align 4
  %34 = call ptr @get_namespace_name(i32 noundef %33)
  store ptr %34, ptr %9, align 8
  %35 = load ptr, ptr %9, align 8
  %36 = call ptr @quote_identifier(ptr noundef %35)
  call void (ptr, ptr, ...) @appendStringInfo(ptr noundef %10, ptr noundef @.str.19, ptr noundef %36)
  br label %37

37:                                               ; preds = %30, %27
  %38 = load ptr, ptr %8, align 8
  call void (ptr, ptr, ...) @appendStringInfo(ptr noundef %10, ptr noundef @.str.7, ptr noundef %38)
  %39 = load ptr, ptr %7, align 8
  %40 = getelementptr inbounds nuw %struct.FormData_pg_operator, ptr %39, i32 0, i32 7
  %41 = load i32, ptr %40, align 4
  %42 = icmp ne i32 %41, 0
  br i1 %42, label %43, label %60

43:                                               ; preds = %37
  %44 = load i16, ptr %4, align 2
  %45 = zext i16 %44 to i32
  %46 = and i32 %45, 2
  %47 = icmp ne i32 %46, 0
  br i1 %47, label %48, label %53

48:                                               ; preds = %43
  %49 = load ptr, ptr %7, align 8
  %50 = getelementptr inbounds nuw %struct.FormData_pg_operator, ptr %49, i32 0, i32 7
  %51 = load i32, ptr %50, align 4
  %52 = call ptr @format_type_be_qualified(i32 noundef %51)
  br label %58

53:                                               ; preds = %43
  %54 = load ptr, ptr %7, align 8
  %55 = getelementptr inbounds nuw %struct.FormData_pg_operator, ptr %54, i32 0, i32 7
  %56 = load i32, ptr %55, align 4
  %57 = call ptr @format_type_be(i32 noundef %56)
  br label %58

58:                                               ; preds = %53, %48
  %59 = phi ptr [ %52, %48 ], [ %57, %53 ]
  call void (ptr, ptr, ...) @appendStringInfo(ptr noundef %10, ptr noundef @.str.20, ptr noundef %59)
  br label %61

60:                                               ; preds = %37
  call void @appendStringInfoString(ptr noundef %10, ptr noundef @.str.21)
  br label %61

61:                                               ; preds = %60, %58
  %62 = load ptr, ptr %7, align 8
  %63 = getelementptr inbounds nuw %struct.FormData_pg_operator, ptr %62, i32 0, i32 8
  %64 = load i32, ptr %63, align 4
  %65 = icmp ne i32 %64, 0
  br i1 %65, label %66, label %83

66:                                               ; preds = %61
  %67 = load i16, ptr %4, align 2
  %68 = zext i16 %67 to i32
  %69 = and i32 %68, 2
  %70 = icmp ne i32 %69, 0
  br i1 %70, label %71, label %76

71:                                               ; preds = %66
  %72 = load ptr, ptr %7, align 8
  %73 = getelementptr inbounds nuw %struct.FormData_pg_operator, ptr %72, i32 0, i32 8
  %74 = load i32, ptr %73, align 4
  %75 = call ptr @format_type_be_qualified(i32 noundef %74)
  br label %81

76:                                               ; preds = %66
  %77 = load ptr, ptr %7, align 8
  %78 = getelementptr inbounds nuw %struct.FormData_pg_operator, ptr %77, i32 0, i32 8
  %79 = load i32, ptr %78, align 4
  %80 = call ptr @format_type_be(i32 noundef %79)
  br label %81

81:                                               ; preds = %76, %71
  %82 = phi ptr [ %75, %71 ], [ %80, %76 ]
  call void (ptr, ptr, ...) @appendStringInfo(ptr noundef %10, ptr noundef @.str.22, ptr noundef %82)
  br label %84

83:                                               ; preds = %61
  call void @appendStringInfoString(ptr noundef %10, ptr noundef @.str.23)
  br label %84

84:                                               ; preds = %83, %81
  %85 = getelementptr inbounds nuw %struct.StringInfoData, ptr %10, i32 0, i32 0
  %86 = load ptr, ptr %85, align 8
  store ptr %86, ptr %5, align 8
  %87 = load ptr, ptr %6, align 8
  call void @ReleaseSysCache(ptr noundef %87)
  call void @llvm.lifetime.end.p0(i64 24, ptr %10) #8
  call void @llvm.lifetime.end.p0(i64 8, ptr %9) #8
  call void @llvm.lifetime.end.p0(i64 8, ptr %8) #8
  call void @llvm.lifetime.end.p0(i64 8, ptr %7) #8
  br label %100

88:                                               ; preds = %2
  %89 = load i16, ptr %4, align 2
  %90 = zext i16 %89 to i32
  %91 = and i32 %90, 1
  %92 = icmp ne i32 %91, 0
  br i1 %92, label %93, label %94

93:                                               ; preds = %88
  store ptr null, ptr %5, align 8
  br label %99

94:                                               ; preds = %88
  %95 = call ptr @palloc(i64 noundef 64)
  store ptr %95, ptr %5, align 8
  %96 = load ptr, ptr %5, align 8
  %97 = load i32, ptr %3, align 4
  %98 = call i32 (ptr, i64, ptr, ...) @pg_snprintf(ptr noundef %96, i64 noundef 64, ptr noundef @.str.5, i32 noundef %97)
  br label %99

99:                                               ; preds = %94, %93
  br label %100

100:                                              ; preds = %99, %84
  %101 = load ptr, ptr %5, align 8
  call void @llvm.lifetime.end.p0(i64 8, ptr %6) #8
  call void @llvm.lifetime.end.p0(i64 8, ptr %5) #8
  ret ptr %101
}