; Function Attrs: nounwind uwtable
define dso_local ptr @format_operator_extended(i32 noundef %0, i16 noundef zeroext %1) local_unnamed_addr #0 {
  %3 = alloca %struct.StringInfoData, align 8
  %4 = zext i32 %0 to i64
  %5 = tail call ptr @SearchSysCache1(i32 noundef 40, i64 noundef %4) #9
  %.not = icmp eq ptr %5, null
  br i1 %.not, label %46, label %6

6:                                                ; preds = %2
  %7 = getelementptr i8, ptr %5, i64 16
  %.val = load ptr, ptr %7, align 8
  %8 = getelementptr inbounds nuw i8, ptr %.val, i64 22
  %9 = load i8, ptr %8, align 2
  %10 = zext i8 %9 to i64
  %11 = getelementptr inbounds nuw i8, ptr %.val, i64 %10
  %12 = getelementptr inbounds nuw i8, ptr %11, i64 4
  call void @llvm.lifetime.start.p0(i64 24, ptr nonnull %3) #9
  call void @initStringInfo(ptr noundef nonnull %3) #9
  %13 = and i16 %1, 2
  %.not25 = icmp eq i16 %13, 0
  br i1 %.not25, label %14, label %16

14:                                               ; preds = %6
  %15 = call zeroext i1 @OperatorIsVisible(i32 noundef %0) #9
  br i1 %15, label %.thread, label %16

16:                                               ; preds = %6, %14
  %17 = getelementptr inbounds nuw i8, ptr %11, i64 68
  %18 = load i32, ptr %17, align 4
  %19 = call ptr @get_namespace_name(i32 noundef %18) #9
  %20 = call ptr @quote_identifier(ptr noundef %19) #9
  call void (ptr, ptr, ...) @appendStringInfo(ptr noundef nonnull %3, ptr noundef nonnull @.str.19, ptr noundef %20) #9
  call void (ptr, ptr, ...) @appendStringInfo(ptr noundef nonnull %3, ptr noundef nonnull @.str.7, ptr noundef nonnull %12) #9
  %21 = getelementptr inbounds nuw i8, ptr %11, i64 80
  %22 = load i32, ptr %21, align 4
  %.not26 = icmp eq i32 %22, 0
  br i1 %.not26, label %32, label %25

.thread:                                          ; preds = %14
  call void (ptr, ptr, ...) @appendStringInfo(ptr noundef nonnull %3, ptr noundef nonnull @.str.7, ptr noundef nonnull %12) #9
  %23 = getelementptr inbounds nuw i8, ptr %11, i64 80
  %24 = load i32, ptr %23, align 4
  %.not2628 = icmp eq i32 %24, 0
  br i1 %.not2628, label %32, label %.thread29

25:                                               ; preds = %16
  br i1 %.not25, label %.thread29, label %26

26:                                               ; preds = %25
  %27 = call ptr @format_type_be_qualified(i32 noundef %22) #9
  br label %30

.thread29:                                        ; preds = %.thread, %25
  %28 = phi i32 [ %22, %25 ], [ %24, %.thread ]
  %29 = call ptr @format_type_be(i32 noundef %28) #9
  br label %30

30:                                               ; preds = %.thread29, %26
  %31 = phi ptr [ %27, %26 ], [ %29, %.thread29 ]
  call void (ptr, ptr, ...) @appendStringInfo(ptr noundef nonnull %3, ptr noundef nonnull @.str.20, ptr noundef %31) #9
  br label %33

32:                                               ; preds = %.thread, %16
  call void @appendStringInfoString(ptr noundef nonnull %3, ptr noundef nonnull @.str.21) #9
  br label %33

33:                                               ; preds = %32, %30
  %34 = getelementptr inbounds nuw i8, ptr %11, i64 84
  %35 = load i32, ptr %34, align 4
  %.not27 = icmp eq i32 %35, 0
  br i1 %.not27, label %43, label %36

36:                                               ; preds = %33
  br i1 %.not25, label %39, label %37

37:                                               ; preds = %36
  %38 = call ptr @format_type_be_qualified(i32 noundef %35) #9
  br label %41

39:                                               ; preds = %36
  %40 = call ptr @format_type_be(i32 noundef %35) #9
  br label %41

41:                                               ; preds = %39, %37
  %42 = phi ptr [ %38, %37 ], [ %40, %39 ]
  call void (ptr, ptr, ...) @appendStringInfo(ptr noundef nonnull %3, ptr noundef nonnull @.str.22, ptr noundef %42) #9
  br label %44

43:                                               ; preds = %33
  call void @appendStringInfoString(ptr noundef nonnull %3, ptr noundef nonnull @.str.23) #9
  br label %44

44:                                               ; preds = %43, %41
  %45 = load ptr, ptr %3, align 8
  call void @ReleaseSysCache(ptr noundef nonnull %5) #9
  call void @llvm.lifetime.end.p0(i64 24, ptr nonnull %3) #9
  br label %51

46:                                               ; preds = %2
  %47 = and i16 %1, 1
  %.not24 = icmp eq i16 %47, 0
  br i1 %.not24, label %48, label %51

48:                                               ; preds = %46
  %49 = tail call ptr @palloc(i64 noundef 64) #9
  %50 = tail call i32 (ptr, i64, ptr, ...) @pg_snprintf(ptr noundef %49, i64 noundef 64, ptr noundef nonnull @.str.5, i32 noundef %0) #9
  br label %51

51:                                               ; preds = %46, %48, %44
  %.0 = phi ptr [ %45, %44 ], [ %49, %48 ], [ null, %46 ]
  ret ptr %.0
}